ARM GAS  /tmp/ccPoLI5A.s 			page 1


   1              		.cpu cortex-m4
   2              		.eabi_attribute 27, 1
   3              		.eabi_attribute 28, 1
   4              		.eabi_attribute 20, 1
   5              		.eabi_attribute 21, 1
   6              		.eabi_attribute 23, 3
   7              		.eabi_attribute 24, 1
   8              		.eabi_attribute 25, 1
   9              		.eabi_attribute 26, 1
  10              		.eabi_attribute 30, 1
  11              		.eabi_attribute 34, 1
  12              		.eabi_attribute 18, 4
  13              		.file	"freertos.c"
  14              		.section	.rodata.str1.4,"aMS",%progbits,1
  15              		.align	2
  16              	.LC0:
  17 0000 594B435F 		.ascii	"YKC_OLED\000"
  17      4F4C4544 
  17      00
  18 0009 000000   		.align	2
  19              	.LC2:
  20 000c 484A595F 		.ascii	"HJY_OLED\000"
  20      4F4C4544 
  20      00
  21 0015 000000   		.align	2
  22              	.LC4:
  23 0018 5461736B 		.ascii	"Task_OLED_refre\000"
  23      5F4F4C45 
  23      445F7265 
  23      66726500 
  24              		.text
  25              	.Ltext0:
  26              		.cfi_sections	.debug_frame
  27              		.section	.text.StartDefaultTask,"ax",%progbits
  28              		.align	1
  29              		.global	StartDefaultTask
  30              		.arch armv7e-m
  31              		.syntax unified
  32              		.thumb
  33              		.thumb_func
  34              		.fpu fpv4-sp-d16
  36              	StartDefaultTask:
  37              	.LFB140:
  38              		.file 1 "Core/Src/freertos.c"
   1:Core/Src/freertos.c **** /* USER CODE BEGIN Header */
   2:Core/Src/freertos.c **** /**
   3:Core/Src/freertos.c ****   ******************************************************************************
   4:Core/Src/freertos.c ****   * File Name          : freertos.c
   5:Core/Src/freertos.c ****   * Description        : Code for freertos applications
   6:Core/Src/freertos.c ****   ******************************************************************************
   7:Core/Src/freertos.c ****   * @attention
   8:Core/Src/freertos.c ****   *
   9:Core/Src/freertos.c ****   * <h2><center>&copy; Copyright (c) 2021 STMicroelectronics.
  10:Core/Src/freertos.c ****   * All rights reserved.</center></h2>
  11:Core/Src/freertos.c ****   *
  12:Core/Src/freertos.c ****   * This software component is licensed by ST under Ultimate Liberty license
  13:Core/Src/freertos.c ****   * SLA0044, the "License"; You may not use this file except in compliance with
ARM GAS  /tmp/ccPoLI5A.s 			page 2


  14:Core/Src/freertos.c ****   * the License. You may obtain a copy of the License at:
  15:Core/Src/freertos.c ****   *                             www.st.com/SLA0044
  16:Core/Src/freertos.c ****   *
  17:Core/Src/freertos.c ****   ******************************************************************************
  18:Core/Src/freertos.c ****   */
  19:Core/Src/freertos.c **** /* USER CODE END Header */
  20:Core/Src/freertos.c **** 
  21:Core/Src/freertos.c **** /* Includes ------------------------------------------------------------------*/
  22:Core/Src/freertos.c **** #include "FreeRTOS.h"
  23:Core/Src/freertos.c **** #include "task.h"
  24:Core/Src/freertos.c **** #include "main.h"
  25:Core/Src/freertos.c **** #include "cmsis_os.h"
  26:Core/Src/freertos.c **** 
  27:Core/Src/freertos.c **** /* Private includes ----------------------------------------------------------*/
  28:Core/Src/freertos.c **** /* USER CODE BEGIN Includes */
  29:Core/Src/freertos.c **** #include "oled.h"
  30:Core/Src/freertos.c **** #include "stdio.h"
  31:Core/Src/freertos.c **** /* USER CODE END Includes */
  32:Core/Src/freertos.c **** 
  33:Core/Src/freertos.c **** /* Private typedef -----------------------------------------------------------*/
  34:Core/Src/freertos.c **** /* USER CODE BEGIN PTD */
  35:Core/Src/freertos.c **** extern uint32_t AD_TwoChanel_value[2];
  36:Core/Src/freertos.c **** /* USER CODE END PTD */
  37:Core/Src/freertos.c **** 
  38:Core/Src/freertos.c **** /* Private define ------------------------------------------------------------*/
  39:Core/Src/freertos.c **** /* USER CODE BEGIN PD */
  40:Core/Src/freertos.c **** 
  41:Core/Src/freertos.c **** /* USER CODE END PD */
  42:Core/Src/freertos.c **** 
  43:Core/Src/freertos.c **** /* Private macro -------------------------------------------------------------*/
  44:Core/Src/freertos.c **** /* USER CODE BEGIN PM */
  45:Core/Src/freertos.c **** 
  46:Core/Src/freertos.c **** /* USER CODE END PM */
  47:Core/Src/freertos.c **** 
  48:Core/Src/freertos.c **** /* Private variables ---------------------------------------------------------*/
  49:Core/Src/freertos.c **** /* USER CODE BEGIN Variables */
  50:Core/Src/freertos.c **** 
  51:Core/Src/freertos.c **** /* USER CODE END Variables */
  52:Core/Src/freertos.c **** osThreadId YKC_OLEDHandle;
  53:Core/Src/freertos.c **** osThreadId HJY_OLEDHandle;
  54:Core/Src/freertos.c **** osThreadId Task_OLED_refreHandle;
  55:Core/Src/freertos.c **** 
  56:Core/Src/freertos.c **** /* Private function prototypes -----------------------------------------------*/
  57:Core/Src/freertos.c **** /* USER CODE BEGIN FunctionPrototypes */
  58:Core/Src/freertos.c **** 
  59:Core/Src/freertos.c **** /* USER CODE END FunctionPrototypes */
  60:Core/Src/freertos.c **** 
  61:Core/Src/freertos.c **** void StartDefaultTask(void const * argument);
  62:Core/Src/freertos.c **** void StartTask02(void const * argument);
  63:Core/Src/freertos.c **** void StartTask_OLED_refresh(void const * argument);
  64:Core/Src/freertos.c **** 
  65:Core/Src/freertos.c **** void MX_FREERTOS_Init(void); /* (MISRA C 2004 rule 8.1) */
  66:Core/Src/freertos.c **** 
  67:Core/Src/freertos.c **** /* GetIdleTaskMemory prototype (linked to static allocation support) */
  68:Core/Src/freertos.c **** void vApplicationGetIdleTaskMemory( StaticTask_t **ppxIdleTaskTCBBuffer, StackType_t **ppxIdleTaskS
  69:Core/Src/freertos.c **** 
  70:Core/Src/freertos.c **** /* USER CODE BEGIN GET_IDLE_TASK_MEMORY */
ARM GAS  /tmp/ccPoLI5A.s 			page 3


  71:Core/Src/freertos.c **** static StaticTask_t xIdleTaskTCBBuffer;
  72:Core/Src/freertos.c **** static StackType_t xIdleStack[configMINIMAL_STACK_SIZE];
  73:Core/Src/freertos.c **** 
  74:Core/Src/freertos.c **** void vApplicationGetIdleTaskMemory( StaticTask_t **ppxIdleTaskTCBBuffer, StackType_t **ppxIdleTaskS
  75:Core/Src/freertos.c **** {
  76:Core/Src/freertos.c ****   *ppxIdleTaskTCBBuffer = &xIdleTaskTCBBuffer;
  77:Core/Src/freertos.c ****   *ppxIdleTaskStackBuffer = &xIdleStack[0];
  78:Core/Src/freertos.c ****   *pulIdleTaskStackSize = configMINIMAL_STACK_SIZE;
  79:Core/Src/freertos.c ****   /* place for user code */
  80:Core/Src/freertos.c **** }
  81:Core/Src/freertos.c **** /* USER CODE END GET_IDLE_TASK_MEMORY */
  82:Core/Src/freertos.c **** 
  83:Core/Src/freertos.c **** /**
  84:Core/Src/freertos.c ****   * @brief  FreeRTOS initialization
  85:Core/Src/freertos.c ****   * @param  None
  86:Core/Src/freertos.c ****   * @retval None
  87:Core/Src/freertos.c ****   */
  88:Core/Src/freertos.c **** void MX_FREERTOS_Init(void) {
  89:Core/Src/freertos.c ****   /* USER CODE BEGIN Init */
  90:Core/Src/freertos.c **** 
  91:Core/Src/freertos.c ****   /* USER CODE END Init */
  92:Core/Src/freertos.c **** 
  93:Core/Src/freertos.c ****   /* USER CODE BEGIN RTOS_MUTEX */
  94:Core/Src/freertos.c ****   /* add mutexes, ... */
  95:Core/Src/freertos.c ****   /* USER CODE END RTOS_MUTEX */
  96:Core/Src/freertos.c **** 
  97:Core/Src/freertos.c ****   /* USER CODE BEGIN RTOS_SEMAPHORES */
  98:Core/Src/freertos.c ****   /* add semaphores, ... */
  99:Core/Src/freertos.c ****   /* USER CODE END RTOS_SEMAPHORES */
 100:Core/Src/freertos.c **** 
 101:Core/Src/freertos.c ****   /* USER CODE BEGIN RTOS_TIMERS */
 102:Core/Src/freertos.c ****   /* start timers, add new ones, ... */
 103:Core/Src/freertos.c ****   /* USER CODE END RTOS_TIMERS */
 104:Core/Src/freertos.c **** 
 105:Core/Src/freertos.c ****   /* USER CODE BEGIN RTOS_QUEUES */
 106:Core/Src/freertos.c ****   /* add queues, ... */
 107:Core/Src/freertos.c ****   /* USER CODE END RTOS_QUEUES */
 108:Core/Src/freertos.c **** 
 109:Core/Src/freertos.c ****   /* Create the thread(s) */
 110:Core/Src/freertos.c ****   /* definition and creation of YKC_OLED */
 111:Core/Src/freertos.c ****   osThreadDef(YKC_OLED, StartDefaultTask, osPriorityNormal, 0, 128);
 112:Core/Src/freertos.c ****   YKC_OLEDHandle = osThreadCreate(osThread(YKC_OLED), NULL);
 113:Core/Src/freertos.c **** 
 114:Core/Src/freertos.c ****   /* definition and creation of HJY_OLED */
 115:Core/Src/freertos.c ****   osThreadDef(HJY_OLED, StartTask02, osPriorityIdle, 0, 128);
 116:Core/Src/freertos.c ****   HJY_OLEDHandle = osThreadCreate(osThread(HJY_OLED), NULL);
 117:Core/Src/freertos.c **** 
 118:Core/Src/freertos.c **** 
 119:Core/Src/freertos.c ****  /* definition and creation of Task_OLED_refre */
 120:Core/Src/freertos.c ****   osThreadDef(Task_OLED_refre, StartTask_OLED_refresh, osPriorityLow, 0, 128);
 121:Core/Src/freertos.c ****   Task_OLED_refreHandle = osThreadCreate(osThread(Task_OLED_refre), NULL);
 122:Core/Src/freertos.c **** 
 123:Core/Src/freertos.c **** 
 124:Core/Src/freertos.c ****   /* USER CODE BEGIN RTOS_THREADS */
 125:Core/Src/freertos.c ****   /* add threads, ... */
 126:Core/Src/freertos.c ****   /* USER CODE END RTOS_THREADS */
 127:Core/Src/freertos.c **** 
ARM GAS  /tmp/ccPoLI5A.s 			page 4


 128:Core/Src/freertos.c **** }
 129:Core/Src/freertos.c **** 
 130:Core/Src/freertos.c **** /* USER CODE BEGIN Header_StartDefaultTask */
 131:Core/Src/freertos.c **** /**
 132:Core/Src/freertos.c ****   * @brief  Function implementing the YKC_OLED thread.
 133:Core/Src/freertos.c ****   * @param  argument: Not used
 134:Core/Src/freertos.c ****   * @retval None
 135:Core/Src/freertos.c ****   */
 136:Core/Src/freertos.c **** /* USER CODE END Header_StartDefaultTask */
 137:Core/Src/freertos.c **** void StartDefaultTask(void const * argument)
 138:Core/Src/freertos.c **** {
  39              		.loc 1 138 1 view -0
  40              		.cfi_startproc
  41              		@ Volatile: function does not return.
  42              		@ args = 0, pretend = 0, frame = 0
  43              		@ frame_needed = 0, uses_anonymous_args = 0
  44              	.LVL0:
  45              		.loc 1 138 1 is_stmt 0 view .LVU1
  46 0000 08B5     		push	{r3, lr}
  47              	.LCFI0:
  48              		.cfi_def_cfa_offset 8
  49              		.cfi_offset 3, -8
  50              		.cfi_offset 14, -4
  51              	.LVL1:
  52              	.L2:
 139:Core/Src/freertos.c ****   /* USER CODE BEGIN StartDefaultTask */
 140:Core/Src/freertos.c ****   /* Infinite loop */
 141:Core/Src/freertos.c ****   for(;;)
  53              		.loc 1 141 3 is_stmt 1 discriminator 1 view .LVU2
 142:Core/Src/freertos.c ****   {
 143:Core/Src/freertos.c ****     osDelay(1000);
  54              		.loc 1 143 5 discriminator 1 view .LVU3
  55 0002 4FF47A70 		mov	r0, #1000
  56 0006 FFF7FEFF 		bl	osDelay
  57              	.LVL2:
 144:Core/Src/freertos.c **** 	  HAL_GPIO_TogglePin(GPIOA ,GPIO_PIN_2);
  58              		.loc 1 144 4 discriminator 1 view .LVU4
  59 000a 0421     		movs	r1, #4
  60 000c 0148     		ldr	r0, .L4
  61 000e FFF7FEFF 		bl	HAL_GPIO_TogglePin
  62              	.LVL3:
 141:Core/Src/freertos.c ****   {
  63              		.loc 1 141 8 discriminator 1 view .LVU5
  64 0012 F6E7     		b	.L2
  65              	.L5:
  66              		.align	2
  67              	.L4:
  68 0014 00000240 		.word	1073872896
  69              		.cfi_endproc
  70              	.LFE140:
  72              		.section	.rodata.StartTask02.str1.4,"aMS",%progbits,1
  73              		.align	2
  74              	.LC6:
  75 0000 256400   		.ascii	"%d\000"
  76              		.section	.text.StartTask02,"ax",%progbits
  77              		.align	1
  78              		.global	StartTask02
ARM GAS  /tmp/ccPoLI5A.s 			page 5


  79              		.syntax unified
  80              		.thumb
  81              		.thumb_func
  82              		.fpu fpv4-sp-d16
  84              	StartTask02:
  85              	.LFB141:
 145:Core/Src/freertos.c **** //  	OLED_ShowNum(0,0,AD_TwoChanel_value[0],8,8);
 146:Core/Src/freertos.c **** //  	OLED_ShowNum(0,0,AD_TwoChanel_value[1],4,4);
 147:Core/Src/freertos.c ****   }
 148:Core/Src/freertos.c ****   /* USER CODE END StartDefaultTask */
 149:Core/Src/freertos.c **** }
 150:Core/Src/freertos.c **** 
 151:Core/Src/freertos.c **** /* USER CODE BEGIN Header_StartTask02 */
 152:Core/Src/freertos.c **** /**
 153:Core/Src/freertos.c **** * @brief Function implementing the HJY_OLED thread.
 154:Core/Src/freertos.c **** * @param argument: Not used
 155:Core/Src/freertos.c **** * @retval None
 156:Core/Src/freertos.c **** */
 157:Core/Src/freertos.c **** /* USER CODE END Header_StartTask02 */
 158:Core/Src/freertos.c **** void StartTask02(void const * argument)
 159:Core/Src/freertos.c **** {
  86              		.loc 1 159 1 view -0
  87              		.cfi_startproc
  88              		@ Volatile: function does not return.
  89              		@ args = 0, pretend = 0, frame = 8
  90              		@ frame_needed = 0, uses_anonymous_args = 0
  91              	.LVL4:
  92              		.loc 1 159 1 is_stmt 0 view .LVU7
  93 0000 00B5     		push	{lr}
  94              	.LCFI1:
  95              		.cfi_def_cfa_offset 4
  96              		.cfi_offset 14, -4
  97 0002 85B0     		sub	sp, sp, #20
  98              	.LCFI2:
  99              		.cfi_def_cfa_offset 24
 100              	.LVL5:
 101              	.L7:
 160:Core/Src/freertos.c ****   /* USER CODE BEGIN StartTask02 */
 161:Core/Src/freertos.c ****   /* Infinite loop */
 162:Core/Src/freertos.c ****   for(;;)
 102              		.loc 1 162 3 is_stmt 1 discriminator 1 view .LVU8
 103              	.LBB2:
 163:Core/Src/freertos.c ****   {
 164:Core/Src/freertos.c ****     osDelay(100);
 104              		.loc 1 164 5 discriminator 1 view .LVU9
 105 0004 6420     		movs	r0, #100
 106 0006 FFF7FEFF 		bl	osDelay
 107              	.LVL6:
 165:Core/Src/freertos.c ****     HAL_GPIO_TogglePin(GPIOA ,GPIO_PIN_3);
 108              		.loc 1 165 5 discriminator 1 view .LVU10
 109 000a 0821     		movs	r1, #8
 110 000c 0C48     		ldr	r0, .L9
 111 000e FFF7FEFF 		bl	HAL_GPIO_TogglePin
 112              	.LVL7:
 166:Core/Src/freertos.c ****     uint8_t buff[]="";
 113              		.loc 1 166 5 discriminator 1 view .LVU11
 114              		.loc 1 166 13 is_stmt 0 discriminator 1 view .LVU12
ARM GAS  /tmp/ccPoLI5A.s 			page 6


 115 0012 0024     		movs	r4, #0
 116 0014 8DF80C40 		strb	r4, [sp, #12]
 167:Core/Src/freertos.c ****     snprintf((char*)buff,60,"%d",AD_TwoChanel_value[0]);
 117              		.loc 1 167 5 is_stmt 1 discriminator 1 view .LVU13
 118 0018 0A4B     		ldr	r3, .L9+4
 119 001a 1B68     		ldr	r3, [r3]
 120 001c 0A4A     		ldr	r2, .L9+8
 121 001e 3C21     		movs	r1, #60
 122 0020 03A8     		add	r0, sp, #12
 123 0022 FFF7FEFF 		bl	snprintf
 124              	.LVL8:
 168:Core/Src/freertos.c ****     OLED_Clear(OLED_2);
 125              		.loc 1 168 5 discriminator 1 view .LVU14
 126 0026 7A20     		movs	r0, #122
 127 0028 FFF7FEFF 		bl	OLED_Clear
 128              	.LVL9:
 169:Core/Src/freertos.c ****     OLED_ShowString(OLED_2,0,3,(char*)buff,16);
 129              		.loc 1 169 5 discriminator 1 view .LVU15
 130 002c 1023     		movs	r3, #16
 131 002e 0093     		str	r3, [sp]
 132 0030 03AB     		add	r3, sp, #12
 133 0032 0322     		movs	r2, #3
 134 0034 2146     		mov	r1, r4
 135 0036 7A20     		movs	r0, #122
 136 0038 FFF7FEFF 		bl	OLED_ShowString
 137              	.LVL10:
 138              	.LBE2:
 162:Core/Src/freertos.c ****   {
 139              		.loc 1 162 8 discriminator 1 view .LVU16
 140 003c E2E7     		b	.L7
 141              	.L10:
 142 003e 00BF     		.align	2
 143              	.L9:
 144 0040 00000240 		.word	1073872896
 145 0044 00000000 		.word	AD_TwoChanel_value
 146 0048 00000000 		.word	.LC6
 147              		.cfi_endproc
 148              	.LFE141:
 150              		.section	.text.StartTask_OLED_refresh,"ax",%progbits
 151              		.align	1
 152              		.global	StartTask_OLED_refresh
 153              		.syntax unified
 154              		.thumb
 155              		.thumb_func
 156              		.fpu fpv4-sp-d16
 158              	StartTask_OLED_refresh:
 159              	.LFB142:
 170:Core/Src/freertos.c ****   }
 171:Core/Src/freertos.c ****   /* USER CODE END StartTask02 */
 172:Core/Src/freertos.c **** }
 173:Core/Src/freertos.c **** 
 174:Core/Src/freertos.c **** void StartTask_OLED_refresh(void const * argument)
 175:Core/Src/freertos.c **** {
 160              		.loc 1 175 1 view -0
 161              		.cfi_startproc
 162              		@ Volatile: function does not return.
 163              		@ args = 0, pretend = 0, frame = 0
ARM GAS  /tmp/ccPoLI5A.s 			page 7


 164              		@ frame_needed = 0, uses_anonymous_args = 0
 165              	.LVL11:
 166              		.loc 1 175 1 is_stmt 0 view .LVU18
 167 0000 08B5     		push	{r3, lr}
 168              	.LCFI3:
 169              		.cfi_def_cfa_offset 8
 170              		.cfi_offset 3, -8
 171              		.cfi_offset 14, -4
 172              	.LVL12:
 173              	.L12:
 176:Core/Src/freertos.c ****   /* USER CODE BEGIN StartTask_OLED_refresh */
 177:Core/Src/freertos.c ****   /* Infinite loop */
 178:Core/Src/freertos.c ****   for(;;)
 174              		.loc 1 178 3 is_stmt 1 discriminator 1 view .LVU19
 179:Core/Src/freertos.c ****   {
 180:Core/Src/freertos.c ****     osDelay(25);
 175              		.loc 1 180 5 discriminator 1 view .LVU20
 176 0002 1920     		movs	r0, #25
 177 0004 FFF7FEFF 		bl	osDelay
 178              	.LVL13:
 181:Core/Src/freertos.c **** 		OLED_Refreash();//40hz屏幕刷新
 179              		.loc 1 181 3 discriminator 1 view .LVU21
 180 0008 FFF7FEFF 		bl	OLED_Refreash
 181              	.LVL14:
 178:Core/Src/freertos.c ****   {
 182              		.loc 1 178 8 discriminator 1 view .LVU22
 183 000c F9E7     		b	.L12
 184              		.cfi_endproc
 185              	.LFE142:
 187              		.section	.text.vApplicationGetIdleTaskMemory,"ax",%progbits
 188              		.align	1
 189              		.global	vApplicationGetIdleTaskMemory
 190              		.syntax unified
 191              		.thumb
 192              		.thumb_func
 193              		.fpu fpv4-sp-d16
 195              	vApplicationGetIdleTaskMemory:
 196              	.LVL15:
 197              	.LFB138:
  75:Core/Src/freertos.c ****   *ppxIdleTaskTCBBuffer = &xIdleTaskTCBBuffer;
 198              		.loc 1 75 1 view -0
 199              		.cfi_startproc
 200              		@ args = 0, pretend = 0, frame = 0
 201              		@ frame_needed = 0, uses_anonymous_args = 0
 202              		@ link register save eliminated.
  76:Core/Src/freertos.c ****   *ppxIdleTaskStackBuffer = &xIdleStack[0];
 203              		.loc 1 76 3 view .LVU24
  76:Core/Src/freertos.c ****   *ppxIdleTaskStackBuffer = &xIdleStack[0];
 204              		.loc 1 76 25 is_stmt 0 view .LVU25
 205 0000 034B     		ldr	r3, .L15
 206 0002 0360     		str	r3, [r0]
  77:Core/Src/freertos.c ****   *pulIdleTaskStackSize = configMINIMAL_STACK_SIZE;
 207              		.loc 1 77 3 is_stmt 1 view .LVU26
  77:Core/Src/freertos.c ****   *pulIdleTaskStackSize = configMINIMAL_STACK_SIZE;
 208              		.loc 1 77 27 is_stmt 0 view .LVU27
 209 0004 034B     		ldr	r3, .L15+4
 210 0006 0B60     		str	r3, [r1]
ARM GAS  /tmp/ccPoLI5A.s 			page 8


  78:Core/Src/freertos.c ****   /* place for user code */
 211              		.loc 1 78 3 is_stmt 1 view .LVU28
  78:Core/Src/freertos.c ****   /* place for user code */
 212              		.loc 1 78 25 is_stmt 0 view .LVU29
 213 0008 8023     		movs	r3, #128
 214 000a 1360     		str	r3, [r2]
  80:Core/Src/freertos.c **** /* USER CODE END GET_IDLE_TASK_MEMORY */
 215              		.loc 1 80 1 view .LVU30
 216 000c 7047     		bx	lr
 217              	.L16:
 218 000e 00BF     		.align	2
 219              	.L15:
 220 0010 00000000 		.word	.LANCHOR0
 221 0014 00000000 		.word	.LANCHOR1
 222              		.cfi_endproc
 223              	.LFE138:
 225              		.section	.text.MX_FREERTOS_Init,"ax",%progbits
 226              		.align	1
 227              		.global	MX_FREERTOS_Init
 228              		.syntax unified
 229              		.thumb
 230              		.thumb_func
 231              		.fpu fpv4-sp-d16
 233              	MX_FREERTOS_Init:
 234              	.LFB139:
  88:Core/Src/freertos.c ****   /* USER CODE BEGIN Init */
 235              		.loc 1 88 29 is_stmt 1 view -0
 236              		.cfi_startproc
 237              		@ args = 0, pretend = 0, frame = 88
 238              		@ frame_needed = 0, uses_anonymous_args = 0
 239 0000 70B5     		push	{r4, r5, r6, lr}
 240              	.LCFI4:
 241              		.cfi_def_cfa_offset 16
 242              		.cfi_offset 4, -16
 243              		.cfi_offset 5, -12
 244              		.cfi_offset 6, -8
 245              		.cfi_offset 14, -4
 246 0002 96B0     		sub	sp, sp, #88
 247              	.LCFI5:
 248              		.cfi_def_cfa_offset 104
 111:Core/Src/freertos.c ****   YKC_OLEDHandle = osThreadCreate(osThread(YKC_OLED), NULL);
 249              		.loc 1 111 3 view .LVU32
 250 0004 164C     		ldr	r4, .L19
 251 0006 0FAD     		add	r5, sp, #60
 252 0008 2646     		mov	r6, r4
 253 000a 0FCE     		ldmia	r6!, {r0, r1, r2, r3}
 254 000c 0FC5     		stmia	r5!, {r0, r1, r2, r3}
 255 000e 96E80700 		ldm	r6, {r0, r1, r2}
 256 0012 85E80700 		stm	r5, {r0, r1, r2}
 112:Core/Src/freertos.c **** 
 257              		.loc 1 112 3 view .LVU33
 112:Core/Src/freertos.c **** 
 258              		.loc 1 112 20 is_stmt 0 view .LVU34
 259 0016 0021     		movs	r1, #0
 260 0018 0FA8     		add	r0, sp, #60
 261 001a FFF7FEFF 		bl	osThreadCreate
 262              	.LVL16:
ARM GAS  /tmp/ccPoLI5A.s 			page 9


 112:Core/Src/freertos.c **** 
 263              		.loc 1 112 18 view .LVU35
 264 001e 114B     		ldr	r3, .L19+4
 265 0020 1860     		str	r0, [r3]
 115:Core/Src/freertos.c ****   HJY_OLEDHandle = osThreadCreate(osThread(HJY_OLED), NULL);
 266              		.loc 1 115 3 is_stmt 1 view .LVU36
 267 0022 08AD     		add	r5, sp, #32
 268 0024 04F11C06 		add	r6, r4, #28
 269 0028 0FCE     		ldmia	r6!, {r0, r1, r2, r3}
 270 002a 0FC5     		stmia	r5!, {r0, r1, r2, r3}
 271 002c 96E80700 		ldm	r6, {r0, r1, r2}
 272 0030 85E80700 		stm	r5, {r0, r1, r2}
 116:Core/Src/freertos.c **** 
 273              		.loc 1 116 3 view .LVU37
 116:Core/Src/freertos.c **** 
 274              		.loc 1 116 20 is_stmt 0 view .LVU38
 275 0034 0021     		movs	r1, #0
 276 0036 08A8     		add	r0, sp, #32
 277 0038 FFF7FEFF 		bl	osThreadCreate
 278              	.LVL17:
 116:Core/Src/freertos.c **** 
 279              		.loc 1 116 18 view .LVU39
 280 003c 0A4B     		ldr	r3, .L19+8
 281 003e 1860     		str	r0, [r3]
 120:Core/Src/freertos.c ****   Task_OLED_refreHandle = osThreadCreate(osThread(Task_OLED_refre), NULL);
 282              		.loc 1 120 3 is_stmt 1 view .LVU40
 283 0040 01AD     		add	r5, sp, #4
 284 0042 3834     		adds	r4, r4, #56
 285 0044 0FCC     		ldmia	r4!, {r0, r1, r2, r3}
 286 0046 0FC5     		stmia	r5!, {r0, r1, r2, r3}
 287 0048 94E80700 		ldm	r4, {r0, r1, r2}
 288 004c 85E80700 		stm	r5, {r0, r1, r2}
 121:Core/Src/freertos.c **** 
 289              		.loc 1 121 3 view .LVU41
 121:Core/Src/freertos.c **** 
 290              		.loc 1 121 27 is_stmt 0 view .LVU42
 291 0050 0021     		movs	r1, #0
 292 0052 01A8     		add	r0, sp, #4
 293 0054 FFF7FEFF 		bl	osThreadCreate
 294              	.LVL18:
 121:Core/Src/freertos.c **** 
 295              		.loc 1 121 25 view .LVU43
 296 0058 044B     		ldr	r3, .L19+12
 297 005a 1860     		str	r0, [r3]
 128:Core/Src/freertos.c **** 
 298              		.loc 1 128 1 view .LVU44
 299 005c 16B0     		add	sp, sp, #88
 300              	.LCFI6:
 301              		.cfi_def_cfa_offset 16
 302              		@ sp needed
 303 005e 70BD     		pop	{r4, r5, r6, pc}
 304              	.L20:
 305              		.align	2
 306              	.L19:
 307 0060 00000000 		.word	.LANCHOR2
 308 0064 00000000 		.word	YKC_OLEDHandle
 309 0068 00000000 		.word	HJY_OLEDHandle
ARM GAS  /tmp/ccPoLI5A.s 			page 10


 310 006c 00000000 		.word	Task_OLED_refreHandle
 311              		.cfi_endproc
 312              	.LFE139:
 314              		.comm	Task_OLED_refreHandle,4,4
 315              		.comm	HJY_OLEDHandle,4,4
 316              		.comm	YKC_OLEDHandle,4,4
 317              		.section	.rodata
 318              		.align	2
 319              		.set	.LANCHOR2,. + 0
 320              	.LC7:
 321 0000 00000000 		.word	.LC0
 322 0004 00000000 		.word	StartDefaultTask
 323 0008 0000     		.short	0
 324 000a 0000     		.space	2
 325 000c 00000000 		.word	0
 326 0010 80000000 		.word	128
 327 0014 00000000 		.word	0
 328 0018 00000000 		.word	0
 329              	.LC8:
 330 001c 0C000000 		.word	.LC2
 331 0020 00000000 		.word	StartTask02
 332 0024 FDFF     		.short	-3
 333 0026 0000     		.space	2
 334 0028 00000000 		.word	0
 335 002c 80000000 		.word	128
 336 0030 00000000 		.word	0
 337 0034 00000000 		.word	0
 338              	.LC9:
 339 0038 18000000 		.word	.LC4
 340 003c 00000000 		.word	StartTask_OLED_refresh
 341 0040 FEFF     		.short	-2
 342 0042 0000     		.space	2
 343 0044 00000000 		.word	0
 344 0048 80000000 		.word	128
 345 004c 00000000 		.word	0
 346 0050 00000000 		.word	0
 347              		.section	.bss.xIdleStack,"aw",%nobits
 348              		.align	2
 349              		.set	.LANCHOR1,. + 0
 352              	xIdleStack:
 353 0000 00000000 		.space	512
 353      00000000 
 353      00000000 
 353      00000000 
 353      00000000 
 354              		.section	.bss.xIdleTaskTCBBuffer,"aw",%nobits
 355              		.align	2
 356              		.set	.LANCHOR0,. + 0
 359              	xIdleTaskTCBBuffer:
 360 0000 00000000 		.space	84
 360      00000000 
 360      00000000 
 360      00000000 
 360      00000000 
 361              		.text
 362              	.Letext0:
 363              		.file 2 "/usr/lib/gcc/arm-none-eabi/9.2.1/include/stdint.h"
ARM GAS  /tmp/ccPoLI5A.s 			page 11


 364              		.file 3 "Middlewares/Third_Party/FreeRTOS/Source/portable/GCC/ARM_CM4F/portmacro.h"
 365              		.file 4 "Middlewares/Third_Party/FreeRTOS/Source/include/FreeRTOS.h"
 366              		.file 5 "Middlewares/Third_Party/FreeRTOS/Source/include/task.h"
 367              		.file 6 "Core/Inc/FreeRTOSConfig.h"
 368              		.file 7 "Drivers/CMSIS/Include/core_cm4.h"
 369              		.file 8 "Drivers/CMSIS/Device/ST/STM32F4xx/Include/system_stm32f4xx.h"
 370              		.file 9 "Drivers/CMSIS/Device/ST/STM32F4xx/Include/stm32f405xx.h"
 371              		.file 10 "Drivers/STM32F4xx_HAL_Driver/Inc/stm32f4xx_hal.h"
 372              		.file 11 "Middlewares/Third_Party/FreeRTOS/Source/CMSIS_RTOS/cmsis_os.h"
 373              		.file 12 "/usr/lib/gcc/arm-none-eabi/9.2.1/include/stddef.h"
 374              		.file 13 "/usr/include/newlib/sys/_types.h"
 375              		.file 14 "/usr/include/newlib/sys/reent.h"
 376              		.file 15 "/usr/include/newlib/sys/lock.h"
 377              		.file 16 "/usr/include/newlib/stdlib.h"
 378              		.file 17 "Core/Inc/oled.h"
 379              		.file 18 "Drivers/STM32F4xx_HAL_Driver/Inc/stm32f4xx_hal_gpio.h"
 380              		.file 19 "/usr/include/newlib/stdio.h"
ARM GAS  /tmp/ccPoLI5A.s 			page 12

